; Function Attrs: mustprogress uwtable
define hidden void @_ZN4cvc58internal6theory7strings16RegExpEnumeratorC2ENS0_8TypeNodeEPNS1_24TypeEnumeratorPropertiesE(ptr noundef nonnull align 8 dereferenceable(72) %this, ptr nocapture noundef readonly %type, ptr noundef %tep) unnamed_addr #3 align 2 personality ptr @__gxx_personality_v0 {
entry:
  %agg.tmp = alloca %"class.cvc5::internal::TypeNode", align 8
  %agg.tmp2 = alloca %"class.cvc5::internal::TypeNode", align 8
  %0 = load ptr, ptr %type, align 8
  store ptr %0, ptr %agg.tmp, align 8
  %bf.load.i.i = load i64, ptr %0, align 8
  %bf.lshr.i.i = lshr i64 %bf.load.i.i, 40
  %1 = trunc i64 %bf.lshr.i.i to i32
  %bf.cast.i.i = and i32 %1, 1048575
  %cmp.i.i = icmp ult i32 %bf.cast.i.i, 1048574
  br i1 %cmp.i.i, label %if.then.i.i, label %if.else.i.i

if.then.i.i:                                      ; preds = %entry
  %bf.value.i.i = add i64 %bf.load.i.i, 1099511627776
  %bf.shl.i.i = and i64 %bf.value.i.i, 1152920405095219200
  %bf.clear7.i.i = and i64 %bf.load.i.i, -1152920405095219201
  %bf.set.i.i = or disjoint i64 %bf.shl.i.i, %bf.clear7.i.i
  store i64 %bf.set.i.i, ptr %0, align 8
  br label %_ZN4cvc58internal8TypeNodeC2ERKS1_.exit

if.else.i.i:                                      ; preds = %entry
  %cmp12.i.i = icmp eq i32 %bf.cast.i.i, 1048574
  br i1 %cmp12.i.i, label %if.then13.i.i, label %_ZN4cvc58internal8TypeNodeC2ERKS1_.exit

if.then13.i.i:                                    ; preds = %if.else.i.i
  %bf.set23.i.i = or i64 %bf.load.i.i, 1152920405095219200
  store i64 %bf.set23.i.i, ptr %0, align 8
  tail call void @_ZN4cvc58internal4expr9NodeValue20markRefCountMaxedOutEv(ptr noundef nonnull align 8 dereferenceable(16) %0)
  br label %_ZN4cvc58internal8TypeNodeC2ERKS1_.exit

_ZN4cvc58internal8TypeNodeC2ERKS1_.exit:          ; preds = %if.then.i.i, %if.else.i.i, %if.then13.i.i
  invoke void @_ZN4cvc58internal6theory18TypeEnumeratorBaseINS1_7strings16RegExpEnumeratorEEC2ENS0_8TypeNodeE(ptr noundef nonnull align 8 dereferenceable(16) %this, ptr noundef nonnull %agg.tmp)
          to label %invoke.cont unwind label %lpad

invoke.cont:                                      ; preds = %_ZN4cvc58internal8TypeNodeC2ERKS1_.exit
  %2 = load ptr, ptr %agg.tmp, align 8
  %bf.load.i.i3 = load i64, ptr %2, align 8
  %3 = and i64 %bf.load.i.i3, 1152920405095219200
  %cmp.not.i.i = icmp eq i64 %3, 1152920405095219200
  br i1 %cmp.not.i.i, label %_ZN4cvc58internal8TypeNodeD2Ev.exit, label %if.then.i.i4

if.then.i.i4:                                     ; preds = %invoke.cont
  %bf.value.i.i5 = add i64 %bf.load.i.i3, 1152920405095219200
  %bf.shl.i.i6 = and i64 %bf.value.i.i5, 1152920405095219200
  %bf.clear7.i.i7 = and i64 %bf.load.i.i3, -1152920405095219201
  %bf.set.i.i8 = or disjoint i64 %bf.shl.i.i6, %bf.clear7.i.i7
  store i64 %bf.set.i.i8, ptr %2, align 8
  %cmp12.i.i9 = icmp eq i64 %bf.shl.i.i6, 0
  br i1 %cmp12.i.i9, label %if.then13.i.i10, label %_ZN4cvc58internal8TypeNodeD2Ev.exit

if.then13.i.i10:                                  ; preds = %if.then.i.i4
  invoke void @_ZN4cvc58internal4expr9NodeValue15markForDeletionEv(ptr noundef nonnull align 8 dereferenceable(16) %2)
          to label %_ZN4cvc58internal8TypeNodeD2Ev.exit unwind label %terminate.lpad.i

terminate.lpad.i:                                 ; preds = %if.then13.i.i10
  %4 = landingpad { ptr, i32 }
          catch ptr null
  %5 = extractvalue { ptr, i32 } %4, 0
  call void @__clang_call_terminate(ptr %5) #12
  unreachable

_ZN4cvc58internal8TypeNodeD2Ev.exit:              ; preds = %invoke.cont, %if.then.i.i4, %if.then13.i.i10
  store ptr getelementptr inbounds ({ [8 x ptr] }, ptr @_ZTVN4cvc58internal6theory7strings16RegExpEnumeratorE, i64 0, i32 0, i64 2), ptr %this, align 8
  %d_senum = getelementptr inbounds i8, ptr %this, i64 16
  %call = invoke noundef ptr @_ZN4cvc58internal11NodeManager9currentNMEv()
          to label %invoke.cont4 unwind label %lpad3

invoke.cont4:                                     ; preds = %_ZN4cvc58internal8TypeNodeD2Ev.exit
  invoke void @_ZN4cvc58internal11NodeManager10stringTypeEv(ptr nonnull sret(%"class.cvc5::internal::TypeNode") align 8 %agg.tmp2, ptr noundef nonnull align 8 dereferenceable(3360) %call)
          to label %invoke.cont5 unwind label %lpad3

invoke.cont5:                                     ; preds = %invoke.cont4
  invoke void @_ZN4cvc58internal6theory7strings16StringEnumeratorC1ENS0_8TypeNodeEPNS1_24TypeEnumeratorPropertiesE(ptr noundef nonnull align 8 dereferenceable(56) %d_senum, ptr noundef nonnull %agg.tmp2, ptr noundef %tep)
          to label %invoke.cont7 unwind label %lpad6

invoke.cont7:                                     ; preds = %invoke.cont5
  %6 = load ptr, ptr %agg.tmp2, align 8
  %bf.load.i.i11 = load i64, ptr %6, align 8
  %7 = and i64 %bf.load.i.i11, 1152920405095219200
  %cmp.not.i.i12 = icmp eq i64 %7, 1152920405095219200
  br i1 %cmp.not.i.i12, label %_ZN4cvc58internal8TypeNodeD2Ev.exit21, label %if.then.i.i13

if.then.i.i13:                                    ; preds = %invoke.cont7
  %bf.value.i.i14 = add i64 %bf.load.i.i11, 1152920405095219200
  %bf.shl.i.i15 = and i64 %bf.value.i.i14, 1152920405095219200
  %bf.clear7.i.i16 = and i64 %bf.load.i.i11, -1152920405095219201
  %bf.set.i.i17 = or disjoint i64 %bf.shl.i.i15, %bf.clear7.i.i16
  store i64 %bf.set.i.i17, ptr %6, align 8
  %cmp12.i.i18 = icmp eq i64 %bf.shl.i.i15, 0
  br i1 %cmp12.i.i18, label %if.then13.i.i19, label %_ZN4cvc58internal8TypeNodeD2Ev.exit21

if.then13.i.i19:                                  ; preds = %if.then.i.i13
  invoke void @_ZN4cvc58internal4expr9NodeValue15markForDeletionEv(ptr noundef nonnull align 8 dereferenceable(16) %6)
          to label %_ZN4cvc58internal8TypeNodeD2Ev.exit21 unwind label %terminate.lpad.i20

terminate.lpad.i20:                               ; preds = %if.then13.i.i19
  %8 = landingpad { ptr, i32 }
          catch ptr null
  %9 = extractvalue { ptr, i32 } %8, 0
  call void @__clang_call_terminate(ptr %9) #12
  unreachable

_ZN4cvc58internal8TypeNodeD2Ev.exit21:            ; preds = %invoke.cont7, %if.then.i.i13, %if.then13.i.i19
  ret void

lpad:                                             ; preds = %_ZN4cvc58internal8TypeNodeC2ERKS1_.exit
  %10 = landingpad { ptr, i32 }
          cleanup
  call void @_ZN4cvc58internal8TypeNodeD2Ev(ptr noundef nonnull align 8 dereferenceable(8) %agg.tmp) #13
  br label %eh.resume

lpad3:                                            ; preds = %invoke.cont4, %_ZN4cvc58internal8TypeNodeD2Ev.exit
  %11 = landingpad { ptr, i32 }
          cleanup
  br label %ehcleanup

lpad6:                                            ; preds = %invoke.cont5
  %12 = landingpad { ptr, i32 }
          cleanup
  call void @_ZN4cvc58internal8TypeNodeD2Ev(ptr noundef nonnull align 8 dereferenceable(8) %agg.tmp2) #13
  br label %ehcleanup

ehcleanup:                                        ; preds = %lpad6, %lpad3
  %.pn = phi { ptr, i32 } [ %12, %lpad6 ], [ %11, %lpad3 ]
  call void @_ZN4cvc58internal6theory18TypeEnumeratorBaseINS1_7strings16RegExpEnumeratorEED2Ev(ptr noundef nonnull align 8 dereferenceable(16) %this) #13
  br label %eh.resume

eh.resume:                                        ; preds = %ehcleanup, %lpad
  %.pn.pn = phi { ptr, i32 } [ %.pn, %ehcleanup ], [ %10, %lpad ]
  resume { ptr, i32 } %.pn.pn
}